target datalayout = "e-m:e-p270:32:32-p271:32:32-p272:64:64-i64:64-i128:128-f80:128-n8:16:32:64-S128"
target triple = "x86_64-pc-linux-gnu"

%struct.RArray = type { %struct.RBasic, %union.anon }
%struct.RBasic = type { i64, i64 }
%union.anon = type { %struct.anon }
%struct.anon = type { i64, %union.anon.0, ptr }
%union.anon.0 = type { i64 }
%struct.minmax_t = type { i64, i64, i64 }

@.str.78 = private unnamed_addr constant [39 x i8] c"../include/ruby/internal/core/rarray.h\00", align 1

; Function Attrs: inlinehint nounwind sspstrong willreturn memory(read) uwtable
define internal i64 @RB_FL_TEST_RAW(i64 noundef %0, i64 noundef %1) #5 {
  %3 = alloca i64, align 8
  %4 = alloca i64, align 8
  store i64 %0, ptr %3, align 8, !tbaa !14
  store i64 %1, ptr %4, align 8, !tbaa !14
  %5 = load i64, ptr %3, align 8, !tbaa !14
  %6 = inttoptr i64 %5 to ptr
  %7 = getelementptr inbounds nuw %struct.RBasic, ptr %6, i32 0, i32 0
  %8 = load i64, ptr %7, align 8, !tbaa !88
  %9 = load i64, ptr %4, align 8, !tbaa !14
  %10 = and i64 %8, %9
  ret i64 %10
}

; Function Attrs: inlinehint nounwind sspstrong willreturn memory(read) uwtable
define internal zeroext i1 @RB_FL_ANY_RAW(i64 noundef %0, i64 noundef %1) #5 {
  %3 = alloca i64, align 8
  %4 = alloca i64, align 8
  store i64 %0, ptr %3, align 8, !tbaa !14
  store i64 %1, ptr %4, align 8, !tbaa !14
  %5 = load i64, ptr %3, align 8, !tbaa !14
  %6 = load i64, ptr %4, align 8, !tbaa !14
  %7 = call i64 @RB_FL_TEST_RAW(i64 noundef %5, i64 noundef %6) #24
  %8 = icmp ne i64 %7, 0
  ret i1 %8
}

; Function Attrs: inlinehint nounwind sspstrong willreturn memory(read) uwtable
define internal ptr @rb_array_const_ptr(i64 noundef %0) #5 {
  %2 = alloca ptr, align 8
  %3 = alloca i64, align 8
  store i64 %0, ptr %3, align 8, !tbaa !14
  %4 = load i64, ptr %3, align 8, !tbaa !14
  %5 = call zeroext i1 @RB_FL_ANY_RAW(i64 noundef %4, i64 noundef 8192) #24
  br i1 %5, label %6, label %11

6:                                                ; preds = %1
  %7 = load i64, ptr %3, align 8, !tbaa !14
  %8 = inttoptr i64 %7 to ptr
  %9 = getelementptr inbounds nuw %struct.RArray, ptr %8, i32 0, i32 1
  %10 = getelementptr inbounds [1 x i64], ptr %9, i64 0, i64 0
  store ptr %10, ptr %2, align 8
  br label %17

11:                                               ; preds = %1
  %12 = load i64, ptr %3, align 8, !tbaa !14
  %13 = inttoptr i64 %12 to ptr
  %14 = getelementptr inbounds nuw %struct.RArray, ptr %13, i32 0, i32 1
  %15 = getelementptr inbounds nuw %struct.anon, ptr %14, i32 0, i32 2
  %16 = load ptr, ptr %15, align 8, !tbaa !31
  store ptr %16, ptr %2, align 8
  br label %17

17:                                               ; preds = %11, %6
  %18 = load ptr, ptr %2, align 8
  ret ptr %18
}

; Function Attrs: inlinehint nounwind sspstrong uwtable
define internal i64 @rb_obj_wb_unprotect(i64 noundef %0, ptr noundef %1, i32 noundef %2) #3 {
  %4 = alloca i64, align 8
  %5 = alloca ptr, align 8
  %6 = alloca i32, align 4
  store i64 %0, ptr %4, align 8, !tbaa !14
  store ptr %1, ptr %5, align 8, !tbaa !86
  store i32 %2, ptr %6, align 4, !tbaa !7
  %7 = load i64, ptr %4, align 8, !tbaa !14
  call void @rb_gc_writebarrier_unprotect(i64 noundef %7)
  %8 = load i64, ptr %4, align 8, !tbaa !14
  ret i64 %8
}

; Function Attrs: nounwind sspstrong uwtable
define internal void @minmax_ii_update(i64 noundef %0, i64 noundef %1, ptr noundef %2) #0 {
  %4 = alloca i64, align 8
  %5 = alloca i64, align 8
  %6 = alloca ptr, align 8
  %7 = alloca i32, align 4
  store i64 %0, ptr %4, align 8, !tbaa !14
  store i64 %1, ptr %5, align 8, !tbaa !14
  store ptr %2, ptr %6, align 8, !tbaa !57
  call void @llvm.lifetime.start.p0(i64 4, ptr %7) #22
  %8 = load ptr, ptr %6, align 8, !tbaa !57
  %9 = getelementptr inbounds nuw %struct.minmax_t, ptr %8, i32 0, i32 0
  %10 = load i64, ptr %9, align 8, !tbaa !59
  %11 = call zeroext i1 @RB_UNDEF_P(i64 noundef %10) #25
  br i1 %11, label %12, label %19

12:                                               ; preds = %3
  %13 = load i64, ptr %4, align 8, !tbaa !14
  %14 = load ptr, ptr %6, align 8, !tbaa !57
  %15 = getelementptr inbounds nuw %struct.minmax_t, ptr %14, i32 0, i32 0
  store i64 %13, ptr %15, align 8, !tbaa !59
  %16 = load i64, ptr %5, align 8, !tbaa !14
  %17 = load ptr, ptr %6, align 8, !tbaa !57
  %18 = getelementptr inbounds nuw %struct.minmax_t, ptr %17, i32 0, i32 1
  store i64 %16, ptr %18, align 8, !tbaa !62
  br label %54

19:                                               ; preds = %3
  %20 = load i64, ptr %4, align 8, !tbaa !14
  %21 = load ptr, ptr %6, align 8, !tbaa !57
  %22 = getelementptr inbounds nuw %struct.minmax_t, ptr %21, i32 0, i32 0
  %23 = load i64, ptr %22, align 8, !tbaa !59
  %24 = call i64 (i32, ...) @rb_yield_values(i32 noundef 2, i64 noundef %20, i64 noundef %23)
  %25 = load i64, ptr %4, align 8, !tbaa !14
  %26 = load ptr, ptr %6, align 8, !tbaa !57
  %27 = getelementptr inbounds nuw %struct.minmax_t, ptr %26, i32 0, i32 0
  %28 = load i64, ptr %27, align 8, !tbaa !59
  %29 = call i32 @rb_cmpint(i64 noundef %24, i64 noundef %25, i64 noundef %28)
  store i32 %29, ptr %7, align 4, !tbaa !7
  %30 = load i32, ptr %7, align 4, !tbaa !7
  %31 = icmp slt i32 %30, 0
  br i1 %31, label %32, label %36

32:                                               ; preds = %19
  %33 = load i64, ptr %4, align 8, !tbaa !14
  %34 = load ptr, ptr %6, align 8, !tbaa !57
  %35 = getelementptr inbounds nuw %struct.minmax_t, ptr %34, i32 0, i32 0
  store i64 %33, ptr %35, align 8, !tbaa !59
  br label %36

36:                                               ; preds = %32, %19
  %37 = load i64, ptr %5, align 8, !tbaa !14
  %38 = load ptr, ptr %6, align 8, !tbaa !57
  %39 = getelementptr inbounds nuw %struct.minmax_t, ptr %38, i32 0, i32 1
  %40 = load i64, ptr %39, align 8, !tbaa !62
  %41 = call i64 (i32, ...) @rb_yield_values(i32 noundef 2, i64 noundef %37, i64 noundef %40)
  %42 = load i64, ptr %5, align 8, !tbaa !14
  %43 = load ptr, ptr %6, align 8, !tbaa !57
  %44 = getelementptr inbounds nuw %struct.minmax_t, ptr %43, i32 0, i32 1
  %45 = load i64, ptr %44, align 8, !tbaa !62
  %46 = call i32 @rb_cmpint(i64 noundef %41, i64 noundef %42, i64 noundef %45)
  store i32 %46, ptr %7, align 4, !tbaa !7
  %47 = load i32, ptr %7, align 4, !tbaa !7
  %48 = icmp sgt i32 %47, 0
  br i1 %48, label %49, label %53

49:                                               ; preds = %36
  %50 = load i64, ptr %5, align 8, !tbaa !14
  %51 = load ptr, ptr %6, align 8, !tbaa !57
  %52 = getelementptr inbounds nuw %struct.minmax_t, ptr %51, i32 0, i32 1
  store i64 %50, ptr %52, align 8, !tbaa !62
  br label %53

53:                                               ; preds = %49, %36
  br label %54

54:                                               ; preds = %53, %12
  call void @llvm.lifetime.end.p0(i64 4, ptr %7) #22
  ret void
}

; Function Attrs: inlinehint nounwind sspstrong willreturn memory(none) uwtable
define internal zeroext i1 @RB_UNDEF_P(i64 noundef %0) #6 {
  %2 = alloca i64, align 8
  store i64 %0, ptr %2, align 8, !tbaa !14
  %3 = load i64, ptr %2, align 8, !tbaa !14
  %4 = icmp eq i64 %3, 36
  ret i1 %4
}

; Function Attrs: nounwind sspstrong uwtable
define dso_local i64 @rb_enum_values_pack(i32 noundef %0, ptr noundef %1) #0 {
  %3 = alloca i64, align 8
  %4 = alloca i32, align 4
  %5 = alloca ptr, align 8
  store i32 %0, ptr %4, align 4, !tbaa !7
  store ptr %1, ptr %5, align 8, !tbaa !11
  %6 = load i32, ptr %4, align 4, !tbaa !7
  %7 = icmp eq i32 %6, 0
  br i1 %7, label %8, label %9

8:                                                ; preds = %2
  store i64 4, ptr %3, align 8
  br label %21

9:                                                ; preds = %2
  %10 = load i32, ptr %4, align 4, !tbaa !7
  %11 = icmp eq i32 %10, 1
  br i1 %11, label %12, label %16

12:                                               ; preds = %9
  %13 = load ptr, ptr %5, align 8, !tbaa !11
  %14 = getelementptr i64, ptr %13, i64 0
  %15 = load i64, ptr %14, align 8, !tbaa !14
  store i64 %15, ptr %3, align 8
  br label %21

16:                                               ; preds = %9
  %17 = load i32, ptr %4, align 4, !tbaa !7
  %18 = sext i32 %17 to i64
  %19 = load ptr, ptr %5, align 8, !tbaa !11
  %20 = call i64 @rb_ary_new_from_values(i64 noundef %18, ptr noundef %19)
  store i64 %20, ptr %3, align 8
  br label %21

21:                                               ; preds = %16, %12, %8
  %22 = load i64, ptr %3, align 8
  ret i64 %22
}

; Function Attrs: inlinehint nounwind sspstrong uwtable
define internal ptr @RARRAY_PTR(i64 noundef %0) #3 {
  %2 = alloca i64, align 8
  %3 = alloca i64, align 8
  store i64 %0, ptr %2, align 8, !tbaa !14
  call void @llvm.lifetime.start.p0(i64 8, ptr %3) #22
  %4 = load i64, ptr %2, align 8, !tbaa !14
  %5 = call i64 @rb_obj_wb_unprotect(i64 noundef %4, ptr noundef @.str.78, i32 noundef 370)
  store i64 %5, ptr %3, align 8, !tbaa !14
  %6 = load i64, ptr %3, align 8, !tbaa !14
  %7 = call ptr @rb_array_const_ptr(i64 noundef %6) #24
  call void @llvm.lifetime.end.p0(i64 8, ptr %3) #22
  ret ptr %7
}

; Function Attrs: nounwind sspstrong uwtable
define internal i64 @minmax_ii(i64 noundef %0, i64 noundef %1, i32 noundef %2, ptr noundef %3, i64 noundef %4) #0 {
  %6 = alloca i64, align 8
  %7 = alloca i64, align 8
  %8 = alloca i64, align 8
  %9 = alloca i32, align 4
  %10 = alloca ptr, align 8
  %11 = alloca i64, align 8
  %12 = alloca ptr, align 8
  %13 = alloca i32, align 4
  %14 = alloca i64, align 8
  %15 = alloca i32, align 4
  %16 = alloca i64, align 8
  store i64 %0, ptr %7, align 8, !tbaa !14
  store i64 %1, ptr %8, align 8, !tbaa !14
  store i32 %2, ptr %9, align 4, !tbaa !7
  store ptr %3, ptr %10, align 8, !tbaa !11
  store i64 %4, ptr %11, align 8, !tbaa !14
  call void @llvm.lifetime.start.p0(i64 8, ptr %12) #22
  %17 = load i64, ptr %8, align 8, !tbaa !14
  %18 = call ptr @RARRAY_PTR(i64 noundef %17)
  store ptr %18, ptr %12, align 8, !tbaa !57
  call void @llvm.lifetime.start.p0(i64 4, ptr %13) #22
  call void @llvm.lifetime.start.p0(i64 8, ptr %14) #22
  br label %19

19:                                               ; preds = %5
  %20 = load i32, ptr %9, align 4, !tbaa !7
  %21 = load ptr, ptr %10, align 8, !tbaa !11
  %22 = call i64 @rb_enum_values_pack(i32 noundef %20, ptr noundef %21)
  store i64 %22, ptr %7, align 8, !tbaa !14
  br label %23

23:                                               ; preds = %19
  br label %24

24:                                               ; preds = %23
  %25 = load ptr, ptr %12, align 8, !tbaa !57
  %26 = getelementptr inbounds nuw %struct.minmax_t, ptr %25, i32 0, i32 2
  %27 = load i64, ptr %26, align 8, !tbaa !61
  %28 = call zeroext i1 @RB_UNDEF_P(i64 noundef %27) #25
  br i1 %28, label %29, label %33

29:                                               ; preds = %24
  %30 = load i64, ptr %7, align 8, !tbaa !14
  %31 = load ptr, ptr %12, align 8, !tbaa !57
  %32 = getelementptr inbounds nuw %struct.minmax_t, ptr %31, i32 0, i32 2
  store i64 %30, ptr %32, align 8, !tbaa !61
  store i64 4, ptr %6, align 8
  store i32 1, ptr %15, align 4
  br label %61

33:                                               ; preds = %24
  %34 = load ptr, ptr %12, align 8, !tbaa !57
  %35 = getelementptr inbounds nuw %struct.minmax_t, ptr %34, i32 0, i32 2
  %36 = load i64, ptr %35, align 8, !tbaa !61
  store i64 %36, ptr %14, align 8, !tbaa !14
  %37 = load ptr, ptr %12, align 8, !tbaa !57
  %38 = getelementptr inbounds nuw %struct.minmax_t, ptr %37, i32 0, i32 2
  store i64 36, ptr %38, align 8, !tbaa !61
  %39 = load i64, ptr %14, align 8, !tbaa !14
  %40 = load i64, ptr %7, align 8, !tbaa !14
  %41 = call i64 (i32, ...) @rb_yield_values(i32 noundef 2, i64 noundef %39, i64 noundef %40)
  %42 = load i64, ptr %14, align 8, !tbaa !14
  %43 = load i64, ptr %7, align 8, !tbaa !14
  %44 = call i32 @rb_cmpint(i64 noundef %41, i64 noundef %42, i64 noundef %43)
  store i32 %44, ptr %13, align 4, !tbaa !7
  %45 = load i32, ptr %13, align 4, !tbaa !7
  %46 = icmp eq i32 %45, 0
  br i1 %46, label %47, label %49

47:                                               ; preds = %33
  %48 = load i64, ptr %14, align 8, !tbaa !14
  store i64 %48, ptr %7, align 8, !tbaa !14
  br label %57

49:                                               ; preds = %33
  %50 = load i32, ptr %13, align 4, !tbaa !7
  %51 = icmp slt i32 %50, 0
  br i1 %51, label %52, label %56

52:                                               ; preds = %49
  call void @llvm.lifetime.start.p0(i64 8, ptr %16) #22
  %53 = load i64, ptr %7, align 8, !tbaa !14
  store i64 %53, ptr %16, align 8, !tbaa !14
  %54 = load i64, ptr %14, align 8, !tbaa !14
  store i64 %54, ptr %7, align 8, !tbaa !14
  %55 = load i64, ptr %16, align 8, !tbaa !14
  store i64 %55, ptr %14, align 8, !tbaa !14
  call void @llvm.lifetime.end.p0(i64 8, ptr %16) #22
  br label %56

56:                                               ; preds = %52, %49
  br label %57

57:                                               ; preds = %56, %47
  %58 = load i64, ptr %7, align 8, !tbaa !14
  %59 = load i64, ptr %14, align 8, !tbaa !14
  %60 = load ptr, ptr %12, align 8, !tbaa !57
  call void @minmax_ii_update(i64 noundef %58, i64 noundef %59, ptr noundef %60)
  store i64 4, ptr %6, align 8
  store i32 1, ptr %15, align 4
  br label %61

61:                                               ; preds = %57, %29
  call void @llvm.lifetime.end.p0(i64 8, ptr %14) #22
  call void @llvm.lifetime.end.p0(i64 4, ptr %13) #22
  call void @llvm.lifetime.end.p0(i64 8, ptr %12) #22
  %62 = load i64, ptr %6, align 8
  ret i64 %62
}