; Function Attrs: nounwind sspstrong uwtable
define internal noundef i64 @minmax_ii(i64 %0, i64 noundef %1, i32 noundef %2, ptr noundef %3, i64 %4) #0 {
  tail call void @rb_gc_writebarrier_unprotect(i64 noundef %1) #14
  %6 = inttoptr i64 %1 to ptr
  %7 = load i64, ptr %6, align 8, !tbaa !20
  %8 = and i64 %7, 8192
  %.not.i.i = icmp eq i64 %8, 0
  br i1 %.not.i.i, label %11, label %9

9:                                                ; preds = %5
  %10 = getelementptr inbounds nuw i8, ptr %6, i64 16
  br label %RARRAY_PTR.exit

11:                                               ; preds = %5
  %12 = getelementptr inbounds nuw i8, ptr %6, i64 32
  %13 = load ptr, ptr %12, align 8, !tbaa !22
  br label %RARRAY_PTR.exit

RARRAY_PTR.exit:                                  ; preds = %9, %11
  %.0.i.i = phi ptr [ %10, %9 ], [ %13, %11 ]
  switch i32 %2, label %16 [
    i32 0, label %rb_enum_values_pack.exit
    i32 1, label %14
  ]

14:                                               ; preds = %RARRAY_PTR.exit
  %15 = load i64, ptr %3, align 8, !tbaa !7
  br label %rb_enum_values_pack.exit

16:                                               ; preds = %RARRAY_PTR.exit
  %17 = sext i32 %2 to i64
  %18 = tail call i64 @rb_ary_new_from_values(i64 noundef %17, ptr noundef %3) #14
  br label %rb_enum_values_pack.exit

rb_enum_values_pack.exit:                         ; preds = %RARRAY_PTR.exit, %14, %16
  %.0.i = phi i64 [ %15, %14 ], [ %18, %16 ], [ 4, %RARRAY_PTR.exit ]
  %19 = getelementptr inbounds nuw i8, ptr %.0.i.i, i64 16
  %20 = load i64, ptr %19, align 8, !tbaa !77
  %21 = icmp eq i64 %20, 36
  br i1 %21, label %22, label %23

22:                                               ; preds = %rb_enum_values_pack.exit
  store i64 %.0.i, ptr %19, align 8, !tbaa !77
  br label %minmax_ii_update.exit

23:                                               ; preds = %rb_enum_values_pack.exit
  store i64 36, ptr %19, align 8, !tbaa !77
  %24 = tail call i64 (i32, ...) @rb_yield_values(i32 noundef 2, i64 noundef %20, i64 noundef %.0.i) #14
  %25 = tail call i32 @rb_cmpint(i64 noundef %24, i64 noundef %20, i64 noundef %.0.i) #14
  %26 = icmp eq i32 %25, 0
  %27 = icmp slt i32 %25, 0
  %spec.select23 = select i1 %27, i64 %.0.i, i64 %20
  %28 = icmp slt i32 %25, 1
  %.022 = select i1 %28, i64 %20, i64 %.0.i
  %.021 = select i1 %26, i64 %20, i64 %spec.select23
  %29 = load i64, ptr %.0.i.i, align 8, !tbaa !75
  %30 = icmp eq i64 %29, 36
  br i1 %30, label %31, label %33

31:                                               ; preds = %23
  store i64 %.022, ptr %.0.i.i, align 8, !tbaa !75
  %32 = getelementptr inbounds nuw i8, ptr %.0.i.i, i64 8
  store i64 %.021, ptr %32, align 8, !tbaa !78
  br label %minmax_ii_update.exit

33:                                               ; preds = %23
  %34 = tail call i64 (i32, ...) @rb_yield_values(i32 noundef 2, i64 noundef %.022, i64 noundef %29) #14
  %35 = load i64, ptr %.0.i.i, align 8, !tbaa !75
  %36 = tail call i32 @rb_cmpint(i64 noundef %34, i64 noundef %.022, i64 noundef %35) #14
  %37 = icmp slt i32 %36, 0
  br i1 %37, label %38, label %39

38:                                               ; preds = %33
  store i64 %.022, ptr %.0.i.i, align 8, !tbaa !75
  br label %39

39:                                               ; preds = %38, %33
  %40 = getelementptr inbounds nuw i8, ptr %.0.i.i, i64 8
  %41 = load i64, ptr %40, align 8, !tbaa !78
  %42 = tail call i64 (i32, ...) @rb_yield_values(i32 noundef 2, i64 noundef %.021, i64 noundef %41) #14
  %43 = load i64, ptr %40, align 8, !tbaa !78
  %44 = tail call i32 @rb_cmpint(i64 noundef %42, i64 noundef %.021, i64 noundef %43) #14
  %45 = icmp sgt i32 %44, 0
  br i1 %45, label %46, label %minmax_ii_update.exit

46:                                               ; preds = %39
  store i64 %.021, ptr %40, align 8, !tbaa !78
  br label %minmax_ii_update.exit

minmax_ii_update.exit:                            ; preds = %46, %39, %31, %22
  ret i64 4
}